; ModuleID = '54/985.c'
source_filename = "54/985.c"
target datalayout = "e-m:e-p270:32:32-p271:32:32-p272:64:64-i64:64-f80:128-n8:16:32:64-S128"
target triple = "x86_64-pc-linux-gnu"

@.str = private unnamed_addr constant [5 x i8] c"%d%d\00", align 1
@.str.1 = private unnamed_addr constant [3 x i8] c"%d\00", align 1

; Function Attrs: noinline nounwind uwtable
define dso_local i32 @main() #0 {
  %1 = alloca i32, align 4
  %2 = alloca i32, align 4
  %3 = alloca i32, align 4
  %4 = alloca i32, align 4
  %5 = alloca i32, align 4
  %6 = alloca i32, align 4
  %7 = alloca i32, align 4
  %8 = alloca i32, align 4
  store i32 0, i32* %1, align 4
  %9 = call i32 (i8*, ...) @__isoc99_scanf(i8* getelementptr inbounds ([5 x i8], [5 x i8]* @.str, i64 0, i64 0), i32* %2, i32* %3)
  %10 = load i32, i32* %2, align 4
  %11 = icmp eq i32 %10, 1
  br i1 %11, label %12, label %13

12:                                               ; preds = %0
  store i32 1, i32* %5, align 4
  br label %57

13:                                               ; preds = %0
  %14 = load i32, i32* %3, align 4
  store i32 %14, i32* %6, align 4
  br label %15

15:                                               ; preds = %53, %13
  store i32 0, i32* %8, align 4
  %16 = load i32, i32* %2, align 4
  %17 = load i32, i32* %3, align 4
  %18 = load i32, i32* %6, align 4
  %19 = load i32, i32* %2, align 4
  %20 = call i32 @f(i32 %16, i32 %17, i32 %18, i32 %19)
  store i32 %20, i32* %5, align 4
  %21 = load i32, i32* %5, align 4
  store i32 %21, i32* %4, align 4
  store i32 0, i32* %7, align 4
  br label %22

22:                                               ; preds = %44, %15
  %23 = load i32, i32* %7, align 4
  %24 = load i32, i32* %2, align 4
  %25 = icmp slt i32 %23, %24
  br i1 %25, label %26, label %47

26:                                               ; preds = %22
  %27 = load i32, i32* %4, align 4
  %28 = load i32, i32* %2, align 4
  %29 = srem i32 %27, %28
  %30 = load i32, i32* %3, align 4
  %31 = icmp eq i32 %29, %30
  br i1 %31, label %32, label %43

32:                                               ; preds = %26
  %33 = load i32, i32* %4, align 4
  %34 = load i32, i32* %3, align 4
  %35 = sub nsw i32 %33, %34
  %36 = load i32, i32* %2, align 4
  %37 = sub nsw i32 %36, 1
  %38 = mul nsw i32 %35, %37
  %39 = load i32, i32* %2, align 4
  %40 = sdiv i32 %38, %39
  store i32 %40, i32* %4, align 4
  %41 = load i32, i32* %8, align 4
  %42 = add nsw i32 %41, 1
  store i32 %42, i32* %8, align 4
  br label %43

43:                                               ; preds = %32, %26
  br label %44

44:                                               ; preds = %43
  %45 = load i32, i32* %7, align 4
  %46 = add nsw i32 %45, 1
  store i32 %46, i32* %7, align 4
  br label %22

47:                                               ; preds = %22
  %48 = load i32, i32* %8, align 4
  %49 = load i32, i32* %2, align 4
  %50 = icmp eq i32 %48, %49
  br i1 %50, label %51, label %52

51:                                               ; preds = %47
  br label %56

52:                                               ; preds = %47
  br label %53

53:                                               ; preds = %52
  %54 = load i32, i32* %6, align 4
  %55 = add nsw i32 %54, 1
  store i32 %55, i32* %6, align 4
  br label %15

56:                                               ; preds = %51
  br label %57

57:                                               ; preds = %56, %12
  %58 = load i32, i32* %5, align 4
  %59 = call i32 (i8*, ...) @printf(i8* getelementptr inbounds ([3 x i8], [3 x i8]* @.str.1, i64 0, i64 0), i32 %58)
  ret i32 0
}

declare dso_local i32 @__isoc99_scanf(i8*, ...) #1

; Function Attrs: noinline nounwind uwtable
define dso_local i32 @f(i32 %0, i32 %1, i32 %2, i32 %3) #0 {
  %5 = alloca i32, align 4
  %6 = alloca i32, align 4
  %7 = alloca i32, align 4
  %8 = alloca i32, align 4
  %9 = alloca i32, align 4
  store i32 %0, i32* %5, align 4
  store i32 %1, i32* %6, align 4
  store i32 %2, i32* %7, align 4
  store i32 %3, i32* %8, align 4
  store i32 0, i32* %9, align 4
  %10 = load i32, i32* %5, align 4
  %11 = icmp eq i32 %10, 1
  br i1 %11, label %12, label %18

12:                                               ; preds = %4
  %13 = load i32, i32* %6, align 4
  %14 = load i32, i32* %8, align 4
  %15 = load i32, i32* %7, align 4
  %16 = mul nsw i32 %14, %15
  %17 = add nsw i32 %13, %16
  store i32 %17, i32* %9, align 4
  br label %32

18:                                               ; preds = %4
  %19 = load i32, i32* %6, align 4
  %20 = load i32, i32* %5, align 4
  %21 = sub nsw i32 %20, 1
  %22 = load i32, i32* %6, align 4
  %23 = load i32, i32* %7, align 4
  %24 = load i32, i32* %8, align 4
  %25 = call i32 @f(i32 %21, i32 %22, i32 %23, i32 %24)
  %26 = load i32, i32* %8, align 4
  %27 = mul nsw i32 %25, %26
  %28 = load i32, i32* %8, align 4
  %29 = sub nsw i32 %28, 1
  %30 = sdiv i32 %27, %29
  %31 = add nsw i32 %19, %30
  store i32 %31, i32* %9, align 4
  br label %32

32:                                               ; preds = %18, %12
  %33 = load i32, i32* %9, align 4
  ret i32 %33
}

declare dso_local i32 @printf(i8*, ...) #1


!llvm.module.flags = !{!0}
!llvm.ident = !{!1}

!0 = !{i32 1, !"wchar_size", i32 4}
!1 = !{!"clang version 10.0.0-4ubuntu1 "}
