; ModuleID = 'source-C-CXX/53/985.c'
source_filename = "source-C-CXX/53/985.c"
target datalayout = "e-m:e-p270:32:32-p271:32:32-p272:64:64-i64:64-f80:128-n8:16:32:64-S128"
target triple = "x86_64-pc-linux-gnu"

@.str = private unnamed_addr constant [5 x i8] c"%d%d\00", align 1
@.str.1 = private unnamed_addr constant [3 x i8] c"%d\00", align 1

; Function Attrs: nofree nounwind sspstrong uwtable
define dso_local i32 @main() local_unnamed_addr #0 {
  %1 = alloca i32, align 4
  %2 = alloca i32, align 4
  %3 = bitcast i32* %1 to i8*
  call void @llvm.lifetime.start.p0i8(i64 4, i8* nonnull %3) #4
  %4 = bitcast i32* %2 to i8*
  call void @llvm.lifetime.start.p0i8(i64 4, i8* nonnull %4) #4
  %5 = call i32 (i8*, ...) @__isoc99_scanf(i8* getelementptr inbounds ([5 x i8], [5 x i8]* @.str, i64 0, i64 0), i32* nonnull %1, i32* nonnull %2)
  %6 = load i32, i32* %1, align 4, !tbaa !5
  %7 = icmp eq i32 %6, 1
  br i1 %7, label %42, label %8

8:                                                ; preds = %0
  %9 = load i32, i32* %2, align 4, !tbaa !5
  %10 = add nsw i32 %6, -1
  %11 = icmp sgt i32 %6, 0
  br i1 %11, label %12, label %34

12:                                               ; preds = %8, %31
  %13 = phi i32 [ %33, %31 ], [ %9, %8 ]
  %14 = call i32 @f(i32 %6, i32 %9, i32 %13, i32 %6)
  br label %15

15:                                               ; preds = %12, %26
  %16 = phi i32 [ 0, %12 ], [ %28, %26 ]
  %17 = phi i32 [ 0, %12 ], [ %29, %26 ]
  %18 = phi i32 [ %14, %12 ], [ %27, %26 ]
  %19 = srem i32 %18, %6
  %20 = icmp eq i32 %19, %9
  br i1 %20, label %21, label %26

21:                                               ; preds = %15
  %22 = sub nsw i32 %18, %9
  %23 = mul nsw i32 %22, %10
  %24 = sdiv i32 %23, %6
  %25 = add nsw i32 %16, 1
  br label %26

26:                                               ; preds = %21, %15
  %27 = phi i32 [ %24, %21 ], [ %18, %15 ]
  %28 = phi i32 [ %25, %21 ], [ %16, %15 ]
  %29 = add nuw nsw i32 %17, 1
  %30 = icmp eq i32 %29, %6
  br i1 %30, label %31, label %15, !llvm.loop !9

31:                                               ; preds = %26
  %32 = icmp eq i32 %28, %6
  %33 = add nsw i32 %13, 1
  br i1 %32, label %42, label %12

34:                                               ; preds = %8
  %35 = icmp eq i32 %6, 0
  br i1 %35, label %36, label %38

36:                                               ; preds = %34
  %37 = call i32 @f(i32 0, i32 %9, i32 %9, i32 0)
  br label %42

38:                                               ; preds = %34, %38
  %39 = phi i32 [ %41, %38 ], [ %9, %34 ]
  %40 = call i32 @f(i32 %6, i32 %9, i32 %39, i32 %6)
  %41 = add nsw i32 %39, 1
  br label %38

42:                                               ; preds = %31, %36, %0
  %43 = phi i32 [ 1, %0 ], [ %37, %36 ], [ %14, %31 ]
  %44 = call i32 (i8*, ...) @printf(i8* nonnull dereferenceable(1) getelementptr inbounds ([3 x i8], [3 x i8]* @.str.1, i64 0, i64 0), i32 %43)
  call void @llvm.lifetime.end.p0i8(i64 4, i8* nonnull %4) #4
  call void @llvm.lifetime.end.p0i8(i64 4, i8* nonnull %3) #4
  ret i32 0
}

; Function Attrs: argmemonly mustprogress nofree nosync nounwind willreturn
declare void @llvm.lifetime.start.p0i8(i64 immarg, i8* nocapture) #1

; Function Attrs: nofree nounwind
declare noundef i32 @__isoc99_scanf(i8* nocapture noundef readonly, ...) local_unnamed_addr #2

; Function Attrs: nofree nosync nounwind readnone sspstrong uwtable
define dso_local i32 @f(i32 %0, i32 %1, i32 %2, i32 %3) local_unnamed_addr #3 {
  %5 = icmp eq i32 %0, 1
  br i1 %5, label %6, label %8

6:                                                ; preds = %4
  %7 = mul nsw i32 %3, %2
  br label %14

8:                                                ; preds = %4
  %9 = add nsw i32 %0, -1
  %10 = tail call i32 @f(i32 %9, i32 %1, i32 %2, i32 %3)
  %11 = mul nsw i32 %10, %3
  %12 = add nsw i32 %3, -1
  %13 = sdiv i32 %11, %12
  br label %14

14:                                               ; preds = %8, %6
  %15 = phi i32 [ %7, %6 ], [ %13, %8 ]
  %16 = add nsw i32 %15, %1
  ret i32 %16
}

; Function Attrs: nofree nounwind
declare noundef i32 @printf(i8* nocapture noundef readonly, ...) local_unnamed_addr #2

; Function Attrs: argmemonly mustprogress nofree nosync nounwind willreturn
declare void @llvm.lifetime.end.p0i8(i64 immarg, i8* nocapture) #1


!llvm.module.flags = !{!0, !1, !2, !3}
!llvm.ident = !{!4}

!0 = !{i32 1, !"wchar_size", i32 4}
!1 = !{i32 7, !"PIC Level", i32 2}
!2 = !{i32 7, !"PIE Level", i32 2}
!3 = !{i32 7, !"uwtable", i32 1}
!4 = !{!"clang version 13.0.0"}
!5 = !{!6, !6, i64 0}
!6 = !{!"int", !7, i64 0}
!7 = !{!"omnipotent char", !8, i64 0}
!8 = !{!"Simple C/C++ TBAA"}
!9 = distinct !{!9, !10}
!10 = !{!"llvm.loop.mustprogress"}
